target datalayout = "e-m:e-p270:32:32-p271:32:32-p272:64:64-i64:64-i128:128-f80:128-n8:16:32:64-S128"
target triple = "x86_64-pc-linux-gnu"

%struct.OnigSyntaxType = type { i32, i32, i32, i32, %struct.OnigMetaCharTableType }
%struct.OnigMetaCharTableType = type { i32, i32, i32, i32, i32, i32 }
%struct.CClassNode = type { i32, i32, ptr, i32, [8 x i32], ptr }
%struct.ParseEnv = type { i32, i32, ptr, ptr, i32, i32, i32, ptr, ptr, ptr, ptr, ptr, i32, i32, i32, i32, [8 x %struct.MemEnv], ptr, i32, i32, i32, i32, ptr, ptr, i32, i32 }
%struct.MemEnv = type { ptr, ptr }

; Function Attrs: nounwind uwtable
define internal void @bitset_set_range(ptr noundef %0, i32 noundef %1, i32 noundef %2) #0 {
  %4 = alloca ptr, align 8
  %5 = alloca i32, align 4
  %6 = alloca i32, align 4
  %7 = alloca i32, align 4
  store ptr %0, ptr %4, align 8, !tbaa !62
  store i32 %1, ptr %5, align 4, !tbaa !10
  store i32 %2, ptr %6, align 4, !tbaa !10
  call void @llvm.lifetime.start.p0(i64 4, ptr %7) #8
  %8 = load i32, ptr %5, align 4, !tbaa !10
  store i32 %8, ptr %7, align 4, !tbaa !10
  br label %9

9:                                                ; preds = %29, %3
  %10 = load i32, ptr %7, align 4, !tbaa !10
  %11 = load i32, ptr %6, align 4, !tbaa !10
  %12 = icmp sle i32 %10, %11
  br i1 %12, label %13, label %16

13:                                               ; preds = %9
  %14 = load i32, ptr %7, align 4, !tbaa !10
  %15 = icmp slt i32 %14, 256
  br label %16

16:                                               ; preds = %13, %9
  %17 = phi i1 [ false, %9 ], [ %15, %13 ]
  br i1 %17, label %18, label %32

18:                                               ; preds = %16
  %19 = load i32, ptr %7, align 4, !tbaa !10
  %20 = and i32 %19, 31
  %21 = shl i32 1, %20
  %22 = load ptr, ptr %4, align 8, !tbaa !62
  %23 = load i32, ptr %7, align 4, !tbaa !10
  %24 = lshr i32 %23, 5
  %25 = zext i32 %24 to i64
  %26 = getelementptr inbounds nuw i32, ptr %22, i64 %25
  %27 = load i32, ptr %26, align 4, !tbaa !10
  %28 = or i32 %27, %21
  store i32 %28, ptr %26, align 4, !tbaa !10
  br label %29

29:                                               ; preds = %18
  %30 = load i32, ptr %7, align 4, !tbaa !10
  %31 = add nsw i32 %30, 1
  store i32 %31, ptr %7, align 4, !tbaa !10
  br label %9, !llvm.loop !315

32:                                               ; preds = %16
  call void @llvm.lifetime.end.p0(i64 4, ptr %7) #8
  ret void
}

; Function Attrs: nounwind uwtable
define internal i32 @add_code_range(ptr noundef %0, ptr noundef %1, i32 noundef %2, i32 noundef %3) #0 {
  %5 = alloca i32, align 4
  %6 = alloca ptr, align 8
  %7 = alloca ptr, align 8
  %8 = alloca i32, align 4
  %9 = alloca i32, align 4
  store ptr %0, ptr %6, align 8, !tbaa !121
  store ptr %1, ptr %7, align 8, !tbaa !9
  store i32 %2, ptr %8, align 4, !tbaa !10
  store i32 %3, ptr %9, align 4, !tbaa !10
  %10 = load i32, ptr %8, align 4, !tbaa !10
  %11 = load i32, ptr %9, align 4, !tbaa !10
  %12 = icmp ugt i32 %10, %11
  br i1 %12, label %13, label %23

13:                                               ; preds = %4
  %14 = load ptr, ptr %7, align 8, !tbaa !9
  %15 = getelementptr inbounds nuw %struct.ParseEnv, ptr %14, i32 0, i32 3
  %16 = load ptr, ptr %15, align 8, !tbaa !158
  %17 = getelementptr inbounds nuw %struct.OnigSyntaxType, ptr %16, i32 0, i32 2
  %18 = load i32, ptr %17, align 4, !tbaa !71
  %19 = and i32 %18, 4194304
  %20 = icmp ne i32 %19, 0
  br i1 %20, label %21, label %22

21:                                               ; preds = %13
  store i32 0, ptr %5, align 4
  br label %28

22:                                               ; preds = %13
  store i32 -203, ptr %5, align 4
  br label %28

23:                                               ; preds = %4
  %24 = load ptr, ptr %6, align 8, !tbaa !121
  %25 = load i32, ptr %8, align 4, !tbaa !10
  %26 = load i32, ptr %9, align 4, !tbaa !10
  %27 = call i32 @add_code_range_to_buf(ptr noundef %24, i32 noundef %25, i32 noundef %26)
  store i32 %27, ptr %5, align 4
  br label %28

28:                                               ; preds = %23, %22, %21
  %29 = load i32, ptr %5, align 4
  ret i32 %29
}

; Function Attrs: nounwind uwtable
define internal i32 @cc_char_next(ptr noundef %0, ptr noundef %1, i32 noundef %2, ptr noundef %3, i32 noundef %4, i32 noundef %5, ptr noundef %6, ptr noundef %7, ptr noundef %8) #0 {
  %10 = alloca i32, align 4
  %11 = alloca ptr, align 8
  %12 = alloca ptr, align 8
  %13 = alloca i32, align 4
  %14 = alloca ptr, align 8
  %15 = alloca i32, align 4
  %16 = alloca i32, align 4
  %17 = alloca ptr, align 8
  %18 = alloca ptr, align 8
  %19 = alloca ptr, align 8
  %20 = alloca i32, align 4
  %21 = alloca i32, align 4
  store ptr %0, ptr %11, align 8, !tbaa !9
  store ptr %1, ptr %12, align 8, !tbaa !62
  store i32 %2, ptr %13, align 4, !tbaa !10
  store ptr %3, ptr %14, align 8, !tbaa !62
  store i32 %4, ptr %15, align 4, !tbaa !10
  store i32 %5, ptr %16, align 4, !tbaa !10
  store ptr %6, ptr %17, align 8, !tbaa !9
  store ptr %7, ptr %18, align 8, !tbaa !9
  store ptr %8, ptr %19, align 8, !tbaa !9
  call void @llvm.lifetime.start.p0(i64 4, ptr %20) #8
  %22 = load ptr, ptr %18, align 8, !tbaa !9
  %23 = load i32, ptr %22, align 4, !tbaa !10
  switch i32 %23, label %164 [
    i32 0, label %24
    i32 1, label %67
    i32 2, label %162
    i32 3, label %162
  ]

24:                                               ; preds = %9
  %25 = load ptr, ptr %17, align 8, !tbaa !9
  %26 = load i32, ptr %25, align 4, !tbaa !10
  %27 = icmp eq i32 %26, 1
  br i1 %27, label %28, label %47

28:                                               ; preds = %24
  %29 = load ptr, ptr %12, align 8, !tbaa !62
  %30 = load i32, ptr %29, align 4, !tbaa !10
  %31 = icmp ugt i32 %30, 255
  br i1 %31, label %32, label %33

32:                                               ; preds = %28
  store i32 -400, ptr %10, align 4
  store i32 1, ptr %21, align 4
  br label %172

33:                                               ; preds = %28
  %34 = load ptr, ptr %12, align 8, !tbaa !62
  %35 = load i32, ptr %34, align 4, !tbaa !10
  %36 = and i32 %35, 31
  %37 = shl i32 1, %36
  %38 = load ptr, ptr %11, align 8, !tbaa !9
  %39 = getelementptr inbounds nuw %struct.CClassNode, ptr %38, i32 0, i32 4
  %40 = load ptr, ptr %12, align 8, !tbaa !62
  %41 = load i32, ptr %40, align 4, !tbaa !10
  %42 = lshr i32 %41, 5
  %43 = zext i32 %42 to i64
  %44 = getelementptr inbounds nuw [8 x i32], ptr %39, i64 0, i64 %43
  %45 = load i32, ptr %44, align 4, !tbaa !10
  %46 = or i32 %45, %37
  store i32 %46, ptr %44, align 4, !tbaa !10
  br label %66

47:                                               ; preds = %24
  %48 = load ptr, ptr %17, align 8, !tbaa !9
  %49 = load i32, ptr %48, align 4, !tbaa !10
  %50 = icmp eq i32 %49, 2
  br i1 %50, label %51, label %65

51:                                               ; preds = %47
  %52 = load ptr, ptr %11, align 8, !tbaa !9
  %53 = getelementptr inbounds nuw %struct.CClassNode, ptr %52, i32 0, i32 5
  %54 = load ptr, ptr %19, align 8, !tbaa !9
  %55 = load ptr, ptr %12, align 8, !tbaa !62
  %56 = load i32, ptr %55, align 4, !tbaa !10
  %57 = load ptr, ptr %12, align 8, !tbaa !62
  %58 = load i32, ptr %57, align 4, !tbaa !10
  %59 = call i32 @add_code_range(ptr noundef %53, ptr noundef %54, i32 noundef %56, i32 noundef %58)
  store i32 %59, ptr %20, align 4, !tbaa !10
  %60 = load i32, ptr %20, align 4, !tbaa !10
  %61 = icmp slt i32 %60, 0
  br i1 %61, label %62, label %64

62:                                               ; preds = %51
  %63 = load i32, ptr %20, align 4, !tbaa !10
  store i32 %63, ptr %10, align 4
  store i32 1, ptr %21, align 4
  br label %172

64:                                               ; preds = %51
  br label %65

65:                                               ; preds = %64, %47
  br label %66

66:                                               ; preds = %65, %33
  br label %165

67:                                               ; preds = %9
  %68 = load i32, ptr %16, align 4, !tbaa !10
  %69 = load ptr, ptr %17, align 8, !tbaa !9
  %70 = load i32, ptr %69, align 4, !tbaa !10
  %71 = icmp eq i32 %68, %70
  br i1 %71, label %72, label %119

72:                                               ; preds = %67
  %73 = load i32, ptr %16, align 4, !tbaa !10
  %74 = icmp eq i32 %73, 1
  br i1 %74, label %75, label %105

75:                                               ; preds = %72
  %76 = load ptr, ptr %12, align 8, !tbaa !62
  %77 = load i32, ptr %76, align 4, !tbaa !10
  %78 = icmp ugt i32 %77, 255
  br i1 %78, label %82, label %79

79:                                               ; preds = %75
  %80 = load i32, ptr %13, align 4, !tbaa !10
  %81 = icmp ugt i32 %80, 255
  br i1 %81, label %82, label %83

82:                                               ; preds = %79, %75
  store i32 -400, ptr %10, align 4
  store i32 1, ptr %21, align 4
  br label %172

83:                                               ; preds = %79
  %84 = load ptr, ptr %12, align 8, !tbaa !62
  %85 = load i32, ptr %84, align 4, !tbaa !10
  %86 = load i32, ptr %13, align 4, !tbaa !10
  %87 = icmp ugt i32 %85, %86
  br i1 %87, label %88, label %98

88:                                               ; preds = %83
  %89 = load ptr, ptr %19, align 8, !tbaa !9
  %90 = getelementptr inbounds nuw %struct.ParseEnv, ptr %89, i32 0, i32 3
  %91 = load ptr, ptr %90, align 8, !tbaa !158
  %92 = getelementptr inbounds nuw %struct.OnigSyntaxType, ptr %91, i32 0, i32 2
  %93 = load i32, ptr %92, align 4, !tbaa !71
  %94 = and i32 %93, 4194304
  %95 = icmp ne i32 %94, 0
  br i1 %95, label %96, label %97

96:                                               ; preds = %88
  br label %160

97:                                               ; preds = %88
  store i32 -203, ptr %10, align 4
  store i32 1, ptr %21, align 4
  br label %172

98:                                               ; preds = %83
  %99 = load ptr, ptr %11, align 8, !tbaa !9
  %100 = getelementptr inbounds nuw %struct.CClassNode, ptr %99, i32 0, i32 4
  %101 = getelementptr inbounds [8 x i32], ptr %100, i64 0, i64 0
  %102 = load ptr, ptr %12, align 8, !tbaa !62
  %103 = load i32, ptr %102, align 4, !tbaa !10
  %104 = load i32, ptr %13, align 4, !tbaa !10
  call void @bitset_set_range(ptr noundef %101, i32 noundef %103, i32 noundef %104)
  br label %118

105:                                              ; preds = %72
  %106 = load ptr, ptr %11, align 8, !tbaa !9
  %107 = getelementptr inbounds nuw %struct.CClassNode, ptr %106, i32 0, i32 5
  %108 = load ptr, ptr %19, align 8, !tbaa !9
  %109 = load ptr, ptr %12, align 8, !tbaa !62
  %110 = load i32, ptr %109, align 4, !tbaa !10
  %111 = load i32, ptr %13, align 4, !tbaa !10
  %112 = call i32 @add_code_range(ptr noundef %107, ptr noundef %108, i32 noundef %110, i32 noundef %111)
  store i32 %112, ptr %20, align 4, !tbaa !10
  %113 = load i32, ptr %20, align 4, !tbaa !10
  %114 = icmp slt i32 %113, 0
  br i1 %114, label %115, label %117

115:                                              ; preds = %105
  %116 = load i32, ptr %20, align 4, !tbaa !10
  store i32 %116, ptr %10, align 4
  store i32 1, ptr %21, align 4
  br label %172

117:                                              ; preds = %105
  br label %118

118:                                              ; preds = %117, %98
  br label %159

119:                                              ; preds = %67
  %120 = load ptr, ptr %12, align 8, !tbaa !62
  %121 = load i32, ptr %120, align 4, !tbaa !10
  %122 = load i32, ptr %13, align 4, !tbaa !10
  %123 = icmp ugt i32 %121, %122
  br i1 %123, label %124, label %134

124:                                              ; preds = %119
  %125 = load ptr, ptr %19, align 8, !tbaa !9
  %126 = getelementptr inbounds nuw %struct.ParseEnv, ptr %125, i32 0, i32 3
  %127 = load ptr, ptr %126, align 8, !tbaa !158
  %128 = getelementptr inbounds nuw %struct.OnigSyntaxType, ptr %127, i32 0, i32 2
  %129 = load i32, ptr %128, align 4, !tbaa !71
  %130 = and i32 %129, 4194304
  %131 = icmp ne i32 %130, 0
  br i1 %131, label %132, label %133

132:                                              ; preds = %124
  br label %160

133:                                              ; preds = %124
  store i32 -203, ptr %10, align 4
  store i32 1, ptr %21, align 4
  br label %172

134:                                              ; preds = %119
  %135 = load ptr, ptr %11, align 8, !tbaa !9
  %136 = getelementptr inbounds nuw %struct.CClassNode, ptr %135, i32 0, i32 4
  %137 = getelementptr inbounds [8 x i32], ptr %136, i64 0, i64 0
  %138 = load ptr, ptr %12, align 8, !tbaa !62
  %139 = load i32, ptr %138, align 4, !tbaa !10
  %140 = load i32, ptr %13, align 4, !tbaa !10
  %141 = icmp ult i32 %140, 255
  br i1 %141, label %142, label %144

142:                                              ; preds = %134
  %143 = load i32, ptr %13, align 4, !tbaa !10
  br label %145

144:                                              ; preds = %134
  br label %145

145:                                              ; preds = %144, %142
  %146 = phi i32 [ %143, %142 ], [ 255, %144 ]
  call void @bitset_set_range(ptr noundef %137, i32 noundef %139, i32 noundef %146)
  %147 = load ptr, ptr %11, align 8, !tbaa !9
  %148 = getelementptr inbounds nuw %struct.CClassNode, ptr %147, i32 0, i32 5
  %149 = load ptr, ptr %19, align 8, !tbaa !9
  %150 = load ptr, ptr %12, align 8, !tbaa !62
  %151 = load i32, ptr %150, align 4, !tbaa !10
  %152 = load i32, ptr %13, align 4, !tbaa !10
  %153 = call i32 @add_code_range(ptr noundef %148, ptr noundef %149, i32 noundef %151, i32 noundef %152)
  store i32 %153, ptr %20, align 4, !tbaa !10
  %154 = load i32, ptr %20, align 4, !tbaa !10
  %155 = icmp slt i32 %154, 0
  br i1 %155, label %156, label %158

156:                                              ; preds = %145
  %157 = load i32, ptr %20, align 4, !tbaa !10
  store i32 %157, ptr %10, align 4
  store i32 1, ptr %21, align 4
  br label %172

158:                                              ; preds = %145
  br label %159

159:                                              ; preds = %158, %118
  br label %160

160:                                              ; preds = %159, %132, %96
  %161 = load ptr, ptr %18, align 8, !tbaa !9
  store i32 2, ptr %161, align 4, !tbaa !10
  br label %165

162:                                              ; preds = %9, %9
  %163 = load ptr, ptr %18, align 8, !tbaa !9
  store i32 0, ptr %163, align 4, !tbaa !10
  br label %165

164:                                              ; preds = %9
  br label %165

165:                                              ; preds = %164, %162, %160, %66
  %166 = load i32, ptr %15, align 4, !tbaa !10
  %167 = load ptr, ptr %14, align 8, !tbaa !62
  store i32 %166, ptr %167, align 4, !tbaa !10
  %168 = load i32, ptr %13, align 4, !tbaa !10
  %169 = load ptr, ptr %12, align 8, !tbaa !62
  store i32 %168, ptr %169, align 4, !tbaa !10
  %170 = load i32, ptr %16, align 4, !tbaa !10
  %171 = load ptr, ptr %17, align 8, !tbaa !9
  store i32 %170, ptr %171, align 4, !tbaa !10
  store i32 0, ptr %10, align 4
  store i32 1, ptr %21, align 4
  br label %172

172:                                              ; preds = %165, %156, %133, %115, %97, %82, %62, %32
  call void @llvm.lifetime.end.p0(i64 4, ptr %20) #8
  %173 = load i32, ptr %10, align 4
  ret i32 %173
}